; Function Attrs: mustprogress uwtable
define internal noundef zeroext i1 @_ZNSt17_Function_handlerIFbllbEZN5arrow7compute8internal12_GLOBAL__N_119PrimitiveFilterImplILi1ELb1EE13ExecREEFilterEvEUlllbE_E9_M_invokeERKSt9_Any_dataOlSC_Ob(ptr noundef nonnull readonly align 8 captures(none) dereferenceable(16) %0, ptr noundef nonnull readonly align 8 captures(none) dereferenceable(8) %1, ptr noundef nonnull readonly align 8 captures(none) dereferenceable(8) %2, ptr nonnull readonly align 1 captures(none) %3) #1 align 2 {
  %.val = load ptr, ptr %0, align 8, !tbaa !900
  %.val4 = load i64, ptr %1, align 8, !tbaa !75
  %.val5 = load i64, ptr %2, align 8, !tbaa !75
  %5 = getelementptr inbounds nuw i8, ptr %.val, i64 16
  %6 = load ptr, ptr %5, align 8, !tbaa !117
  %7 = getelementptr inbounds nuw i8, ptr %.val, i64 32
  %8 = load i64, ptr %7, align 8, !tbaa !119
  %9 = add nsw i64 %8, %.val4
  %10 = getelementptr inbounds nuw i8, ptr %.val, i64 72
  %11 = load ptr, ptr %10, align 8, !tbaa !140
  %12 = getelementptr inbounds nuw i8, ptr %.val, i64 88
  %13 = load i64, ptr %12, align 8, !tbaa !160
  tail call void @_ZN5arrow8internal10CopyBitmapEPKhllPhl(ptr noundef %6, i64 noundef %9, i64 noundef %.val5, ptr noundef %11, i64 noundef %13)
  %14 = load i64, ptr %12, align 8, !tbaa !160
  %15 = add nsw i64 %14, %.val5
  store i64 %15, ptr %12, align 8, !tbaa !160
  ret i1 true
}